addr data	label	opcode	operands
---- ----	-----	------	--------
0000 A000	A_addr	.DW		$A000	
0001 0005	A_size	.DW		$0005	
0002 B000	B_addr	.DW		$B000	
0003 C000	C_addr	.DW		$C000	
0004 0000	
0005 0000	
0006 0000	
0007 0000	
0008 0000	
0009 0000	
000A 0000	
000B 0000	
000C 0000	
000D 0000	
000E 0000	
000F 0000	
0010 0400			LDA		R0,A_addr
0011 0000	
0012 0600			STA		listA, R0
0013 A000	
0014 0400			LDA		R0,B_addr
0015 0002	
0016 0600			STA		listB, R0
0017 B000	
0018 0400			LDA		R0,C_addr
0019 0003	
001A 0600			STA		listC, R0
001B C000	
001C 0400			LDA		R0,A_size
001D 0001	
001E 0600			STA		size, R0
001F 0005	
0020 2800			BRA		start
0021 1000	
0022 0000	
0023 0000	
0024 0000	
0025 0000	
0026 0000	
0027 0000	
0028 0000	
0029 0000	
002A 0000	
002B 0000	
002C 0000	
002D 0000	
002E 0000	
002F 0000	
1000 0C00	start	LDI		R0,$0		
1001 0000	
1002 0C09			LDI		R1,$0		
1003 0000	
1004 0C12			LDI		R2,listA	
1005 A000	
1006 0C1B			LDI		R3,listB 	
1007 B000	
1008 0C24			LDI		R4,listC	
1009 C000	
100A 082A	check	LDR		R5,R2		
100B 0833			LDR		R6,R3		
100C 083C			LDR		R7,R4		
100D 4400			CMI 	R0,size		
100E 0005	
100F 2A00			BRZ		whileB		
1010 1033	
1011 4409			CMI		R1,size		
1012 0005	
1013 2A00			BRZ		whileA		
1014 103D	
1015 462E	comp	CMR 	R5,R6		
1016 2C00			BRN		A			
1017 101C	
1018 2A00			BRZ		AB			
1019 1022	
101A 2800			BRA		B			
101B 102D	
101C 3A3D	A		MOV		R7,R5		
101D 1400			INCR	R0			
101E 1412			INCR	R2			
101F 1424			INCR	R4			
1020 2800			BRA		check		
1021 100A	
1022 3A3D	AB		MOV		R7,R5		
1023 1424			INCR	R4			
1024 083C			LDR		R7,R4		
1025 3A3E			MOV		R7,R6		
1026 1424			INCR	R4			
1027 141B			INCR	R3			
1028 1412			INCR	R2
1029 1400			INCR	R0
102A 1409			INCR	R1
102B 2800			BRA		check
102C 100A	
102D 3A3E	B		MOV		R7,R6		
102E 1409			INCR	R1			
102F 141B			INCR	R3			
1030 1424			INCR	R4			
1031 2800			BRA		check
1032 100A	
1033 3A3E	whileB	MOV		R7,R6		
1034 141B			INCR	R3			
1035 1424			INCR	R4			
1036 1409			INCR	R1			
1037 4409			CMI		R1,size
1038 0005	
1039 2A00			BRZ		done		
103A 1047	
103B 2800			BRA 	check		
103C 100A	
103D 3A3D	whileA	MOV		R7,R5		
103E 1412			INCR	R2			
103F 1424			INCR	R4
1040 1400			INCR	R0
1041 4400			CMI		R0,size
1042 0005	
1043 2A00			BRZ		done
1044 1047	
1045 2800			BRA 	check
1046 100A	
1047 3000	done	STOP				
1048 0000	
1049 0000	
104A 0000	
104B 0000	
104C 0000	
104D 0000	
104E 0000	
104F 0000	
A000 0001	lisA	.DW		$0001
A001 0003			.DW		$0003
A002 0004			.DW		$0004
A003 0008			.DW		$0008
A004 000A			.DW		$000a
A005 0000	
A006 0000	
A007 0000	
A008 0000	
A009 0000	
A00A 0000	
A00B 0000	
A00C 0000	
A00D 0000	
A00E 0000	
A00F 0000	
B000 0000	lisB	.DW		$0000
B001 0002			.DW		$0002
B002 0003			.DW     $0003
B003 0003			.DW     $0003
B004 000B			.DW		$000b
B005 0000	
B006 0000	
B007 0000	
B008 0000	
B009 0000	
B00A 0000	
B00B 0000	
B00C 0000	
B00D 0000	
B00E 0000	
B00F 0000	
